; Function Attrs: mustprogress uwtable
define void @_ZN26MLRenderingParametersFrameC2EiP7QWidget(ptr noundef nonnull align 8 dereferenceable(52) %0, i32 noundef %1, ptr noundef %2) unnamed_addr #3 align 2 {
  tail call void @_ZN6QFrameC2EP7QWidget6QFlagsIN2Qt10WindowTypeEE(ptr noundef nonnull align 8 dereferenceable(48) %0, ptr noundef %2, i32 0)
  store ptr getelementptr inbounds ({ [61 x ptr], [10 x ptr] }, ptr @_ZTV26MLRenderingParametersFrame, i64 0, i32 0, i64 2), ptr %0, align 8
  %4 = getelementptr inbounds i8, ptr %0, i64 16
  store ptr getelementptr inbounds ({ [61 x ptr], [10 x ptr] }, ptr @_ZTV26MLRenderingParametersFrame, i64 0, i32 1, i64 2), ptr %4, align 8
  %5 = getelementptr inbounds i8, ptr %0, i64 48
  store i32 %1, ptr %5, align 8
  ret void
}